target datalayout = "e-m:e-p270:32:32-p271:32:32-p272:64:64-i64:64-i128:128-f80:128-n8:16:32:64-S128"
target triple = "x86_64-pc-linux-gnu"

; Function Attrs: nounwind uwtable
define internal void @get_pixels_8_c(ptr noalias noundef %0, ptr noundef %1, i64 noundef %2) #2 {
  %4 = alloca ptr, align 8
  %5 = alloca ptr, align 8
  %6 = alloca i64, align 8
  %7 = alloca i32, align 4
  store ptr %0, ptr %4, align 8, !tbaa !38
  store ptr %1, ptr %5, align 8, !tbaa !39
  store i64 %2, ptr %6, align 8, !tbaa !40
  call void @llvm.lifetime.start.p0(i64 4, ptr %7) #3
  store i32 0, ptr %7, align 4, !tbaa !31
  br label %8

8:                                                ; preds = %65, %3
  %9 = load i32, ptr %7, align 4, !tbaa !31
  %10 = icmp slt i32 %9, 8
  br i1 %10, label %11, label %68

11:                                               ; preds = %8
  %12 = load ptr, ptr %5, align 8, !tbaa !39
  %13 = getelementptr inbounds i8, ptr %12, i64 0
  %14 = load i8, ptr %13, align 1, !tbaa !41
  %15 = zext i8 %14 to i16
  %16 = load ptr, ptr %4, align 8, !tbaa !38
  %17 = getelementptr inbounds i16, ptr %16, i64 0
  store i16 %15, ptr %17, align 2, !tbaa !42
  %18 = load ptr, ptr %5, align 8, !tbaa !39
  %19 = getelementptr inbounds i8, ptr %18, i64 1
  %20 = load i8, ptr %19, align 1, !tbaa !41
  %21 = zext i8 %20 to i16
  %22 = load ptr, ptr %4, align 8, !tbaa !38
  %23 = getelementptr inbounds i16, ptr %22, i64 1
  store i16 %21, ptr %23, align 2, !tbaa !42
  %24 = load ptr, ptr %5, align 8, !tbaa !39
  %25 = getelementptr inbounds i8, ptr %24, i64 2
  %26 = load i8, ptr %25, align 1, !tbaa !41
  %27 = zext i8 %26 to i16
  %28 = load ptr, ptr %4, align 8, !tbaa !38
  %29 = getelementptr inbounds i16, ptr %28, i64 2
  store i16 %27, ptr %29, align 2, !tbaa !42
  %30 = load ptr, ptr %5, align 8, !tbaa !39
  %31 = getelementptr inbounds i8, ptr %30, i64 3
  %32 = load i8, ptr %31, align 1, !tbaa !41
  %33 = zext i8 %32 to i16
  %34 = load ptr, ptr %4, align 8, !tbaa !38
  %35 = getelementptr inbounds i16, ptr %34, i64 3
  store i16 %33, ptr %35, align 2, !tbaa !42
  %36 = load ptr, ptr %5, align 8, !tbaa !39
  %37 = getelementptr inbounds i8, ptr %36, i64 4
  %38 = load i8, ptr %37, align 1, !tbaa !41
  %39 = zext i8 %38 to i16
  %40 = load ptr, ptr %4, align 8, !tbaa !38
  %41 = getelementptr inbounds i16, ptr %40, i64 4
  store i16 %39, ptr %41, align 2, !tbaa !42
  %42 = load ptr, ptr %5, align 8, !tbaa !39
  %43 = getelementptr inbounds i8, ptr %42, i64 5
  %44 = load i8, ptr %43, align 1, !tbaa !41
  %45 = zext i8 %44 to i16
  %46 = load ptr, ptr %4, align 8, !tbaa !38
  %47 = getelementptr inbounds i16, ptr %46, i64 5
  store i16 %45, ptr %47, align 2, !tbaa !42
  %48 = load ptr, ptr %5, align 8, !tbaa !39
  %49 = getelementptr inbounds i8, ptr %48, i64 6
  %50 = load i8, ptr %49, align 1, !tbaa !41
  %51 = zext i8 %50 to i16
  %52 = load ptr, ptr %4, align 8, !tbaa !38
  %53 = getelementptr inbounds i16, ptr %52, i64 6
  store i16 %51, ptr %53, align 2, !tbaa !42
  %54 = load ptr, ptr %5, align 8, !tbaa !39
  %55 = getelementptr inbounds i8, ptr %54, i64 7
  %56 = load i8, ptr %55, align 1, !tbaa !41
  %57 = zext i8 %56 to i16
  %58 = load ptr, ptr %4, align 8, !tbaa !38
  %59 = getelementptr inbounds i16, ptr %58, i64 7
  store i16 %57, ptr %59, align 2, !tbaa !42
  %60 = load i64, ptr %6, align 8, !tbaa !40
  %61 = load ptr, ptr %5, align 8, !tbaa !39
  %62 = getelementptr inbounds i8, ptr %61, i64 %60
  store ptr %62, ptr %5, align 8, !tbaa !39
  %63 = load ptr, ptr %4, align 8, !tbaa !38
  %64 = getelementptr inbounds i16, ptr %63, i64 8
  store ptr %64, ptr %4, align 8, !tbaa !38
  br label %65

65:                                               ; preds = %11
  %66 = load i32, ptr %7, align 4, !tbaa !31
  %67 = add nsw i32 %66, 1
  store i32 %67, ptr %7, align 4, !tbaa !31
  br label %8, !llvm.loop !47

68:                                               ; preds = %8
  call void @llvm.lifetime.end.p0(i64 4, ptr %7) #3
  ret void
}