; Function Attrs: nofree norecurse nosync nounwind memory(argmem: readwrite) uwtable
define internal void @get_pixels_8_c(ptr noalias noundef writeonly captures(none) %0, ptr noundef readonly captures(none) %1, i64 noundef %2) #1 {
  br label %4

4:                                                ; preds = %3, %4
  %.024 = phi i32 [ 0, %3 ], [ %37, %4 ]
  %.02023 = phi ptr [ %0, %3 ], [ %36, %4 ]
  %.02122 = phi ptr [ %1, %3 ], [ %35, %4 ]
  %5 = load i8, ptr %.02122, align 1, !tbaa !33
  %6 = zext i8 %5 to i16
  store i16 %6, ptr %.02023, align 2, !tbaa !34
  %7 = getelementptr inbounds nuw i8, ptr %.02122, i64 1
  %8 = load i8, ptr %7, align 1, !tbaa !33
  %9 = zext i8 %8 to i16
  %10 = getelementptr inbounds nuw i8, ptr %.02023, i64 2
  store i16 %9, ptr %10, align 2, !tbaa !34
  %11 = getelementptr inbounds nuw i8, ptr %.02122, i64 2
  %12 = load i8, ptr %11, align 1, !tbaa !33
  %13 = zext i8 %12 to i16
  %14 = getelementptr inbounds nuw i8, ptr %.02023, i64 4
  store i16 %13, ptr %14, align 2, !tbaa !34
  %15 = getelementptr inbounds nuw i8, ptr %.02122, i64 3
  %16 = load i8, ptr %15, align 1, !tbaa !33
  %17 = zext i8 %16 to i16
  %18 = getelementptr inbounds nuw i8, ptr %.02023, i64 6
  store i16 %17, ptr %18, align 2, !tbaa !34
  %19 = getelementptr inbounds nuw i8, ptr %.02122, i64 4
  %20 = load i8, ptr %19, align 1, !tbaa !33
  %21 = zext i8 %20 to i16
  %22 = getelementptr inbounds nuw i8, ptr %.02023, i64 8
  store i16 %21, ptr %22, align 2, !tbaa !34
  %23 = getelementptr inbounds nuw i8, ptr %.02122, i64 5
  %24 = load i8, ptr %23, align 1, !tbaa !33
  %25 = zext i8 %24 to i16
  %26 = getelementptr inbounds nuw i8, ptr %.02023, i64 10
  store i16 %25, ptr %26, align 2, !tbaa !34
  %27 = getelementptr inbounds nuw i8, ptr %.02122, i64 6
  %28 = load i8, ptr %27, align 1, !tbaa !33
  %29 = zext i8 %28 to i16
  %30 = getelementptr inbounds nuw i8, ptr %.02023, i64 12
  store i16 %29, ptr %30, align 2, !tbaa !34
  %31 = getelementptr inbounds nuw i8, ptr %.02122, i64 7
  %32 = load i8, ptr %31, align 1, !tbaa !33
  %33 = zext i8 %32 to i16
  %34 = getelementptr inbounds nuw i8, ptr %.02023, i64 14
  store i16 %33, ptr %34, align 2, !tbaa !34
  %35 = getelementptr inbounds i8, ptr %.02122, i64 %2
  %36 = getelementptr inbounds nuw i8, ptr %.02023, i64 16
  %37 = add nuw nsw i32 %.024, 1
  %exitcond.not = icmp eq i32 %37, 8
  br i1 %exitcond.not, label %38, label %4, !llvm.loop !39

38:                                               ; preds = %4
  ret void
}